target datalayout = "e-m:e-p270:32:32-p271:32:32-p272:64:64-i64:64-i128:128-f80:128-n8:16:32:64-S128"
target triple = "x86_64-pc-linux-gnu"

%struct.multi_pack_index = type { ptr, ptr, i64, ptr, ptr, i64, i32, i8, i8, i8, i32, i32, i32, i32, i32, ptr, i64, ptr, i64, ptr, ptr, ptr, ptr, i64, ptr, i64, ptr, i32, i32, ptr, ptr, ptr, [0 x i8] }
%struct.bitmapped_pack = type { ptr, i32, i32, ptr, i32 }

@.str.8 = private unnamed_addr constant [37 x i8] c"MIDX does not contain the BTMP chunk\00", align 1
@.str.9 = private unnamed_addr constant [33 x i8] c"could not load bitmapped pack %u\00", align 1
@.str.43 = private unnamed_addr constant [7 x i8] c"midx.c\00", align 1
@.str.61 = private unnamed_addr constant [38 x i8] c"NULL multi-pack-index for pack ID: %u\00", align 1
@.str.62 = private unnamed_addr constant [37 x i8] c"bad pack-int-id: %u (%u total packs)\00", align 1

; Function Attrs: inlinehint nounwind uwtable
define internal i32 @get_be32(ptr noundef %0) #2 {
  %2 = alloca ptr, align 8
  %3 = alloca ptr, align 8
  store ptr %0, ptr %2, align 8, !tbaa !43
  call void @llvm.lifetime.start.p0(i64 8, ptr %3) #13
  %4 = load ptr, ptr %2, align 8, !tbaa !43
  store ptr %4, ptr %3, align 8, !tbaa !9
  %5 = load ptr, ptr %3, align 8, !tbaa !9
  %6 = getelementptr inbounds i8, ptr %5, i64 0
  %7 = load i8, ptr %6, align 1, !tbaa !49
  %8 = zext i8 %7 to i32
  %9 = shl i32 %8, 24
  %10 = load ptr, ptr %3, align 8, !tbaa !9
  %11 = getelementptr inbounds i8, ptr %10, i64 1
  %12 = load i8, ptr %11, align 1, !tbaa !49
  %13 = zext i8 %12 to i32
  %14 = shl i32 %13, 16
  %15 = or i32 %9, %14
  %16 = load ptr, ptr %3, align 8, !tbaa !9
  %17 = getelementptr inbounds i8, ptr %16, i64 2
  %18 = load i8, ptr %17, align 1, !tbaa !49
  %19 = zext i8 %18 to i32
  %20 = shl i32 %19, 8
  %21 = or i32 %15, %20
  %22 = load ptr, ptr %3, align 8, !tbaa !9
  %23 = getelementptr inbounds i8, ptr %22, i64 3
  %24 = load i8, ptr %23, align 1, !tbaa !49
  %25 = zext i8 %24 to i32
  %26 = shl i32 %25, 0
  %27 = or i32 %21, %26
  call void @llvm.lifetime.end.p0(i64 8, ptr %3) #13
  ret i32 %27
}

; Function Attrs: inlinehint nounwind uwtable
define internal i32 @const_error() #2 {
  ret i32 -1
}

; Function Attrs: nounwind uwtable
define internal i32 @midx_for_pack(ptr noundef %0, i32 noundef %1) #0 {
  %3 = alloca ptr, align 8
  %4 = alloca i32, align 4
  %5 = alloca ptr, align 8
  store ptr %0, ptr %3, align 8, !tbaa !61
  store i32 %1, ptr %4, align 4, !tbaa !40
  call void @llvm.lifetime.start.p0(i64 8, ptr %5) #13
  %6 = load ptr, ptr %3, align 8, !tbaa !61
  %7 = load ptr, ptr %6, align 8, !tbaa !4
  store ptr %7, ptr %5, align 8, !tbaa !4
  br label %8

8:                                                ; preds = %19, %2
  %9 = load ptr, ptr %5, align 8, !tbaa !4
  %10 = icmp ne ptr %9, null
  br i1 %10, label %11, label %17

11:                                               ; preds = %8
  %12 = load i32, ptr %4, align 4, !tbaa !40
  %13 = load ptr, ptr %5, align 8, !tbaa !4
  %14 = getelementptr inbounds nuw %struct.multi_pack_index, ptr %13, i32 0, i32 28
  %15 = load i32, ptr %14, align 4, !tbaa !40
  %16 = icmp ult i32 %12, %15
  br label %17

17:                                               ; preds = %11, %8
  %18 = phi i1 [ false, %8 ], [ %16, %11 ]
  br i1 %18, label %19, label %23

19:                                               ; preds = %17
  %20 = load ptr, ptr %5, align 8, !tbaa !4
  %21 = getelementptr inbounds nuw %struct.multi_pack_index, ptr %20, i32 0, i32 26
  %22 = load ptr, ptr %21, align 8, !tbaa !4
  store ptr %22, ptr %5, align 8, !tbaa !4
  br label %8, !llvm.loop !63

23:                                               ; preds = %17
  %24 = load ptr, ptr %5, align 8, !tbaa !4
  %25 = icmp ne ptr %24, null
  br i1 %25, label %28, label %26

26:                                               ; preds = %23
  %27 = load i32, ptr %4, align 4, !tbaa !40
  call void (ptr, i32, ptr, ...) @BUG_fl(ptr noundef @.str.43, i32 noundef 442, ptr noundef @.str.61, i32 noundef %27) #14
  unreachable

28:                                               ; preds = %23
  %29 = load i32, ptr %4, align 4, !tbaa !40
  %30 = load ptr, ptr %5, align 8, !tbaa !4
  %31 = getelementptr inbounds nuw %struct.multi_pack_index, ptr %30, i32 0, i32 10
  %32 = load i32, ptr %31, align 8, !tbaa !40
  %33 = load ptr, ptr %5, align 8, !tbaa !4
  %34 = getelementptr inbounds nuw %struct.multi_pack_index, ptr %33, i32 0, i32 28
  %35 = load i32, ptr %34, align 4, !tbaa !40
  %36 = add i32 %32, %35
  %37 = icmp uge i32 %29, %36
  br i1 %37, label %38, label %48

38:                                               ; preds = %28
  %39 = call ptr @_(ptr noundef @.str.62)
  %40 = load i32, ptr %4, align 4, !tbaa !40
  %41 = load ptr, ptr %5, align 8, !tbaa !4
  %42 = getelementptr inbounds nuw %struct.multi_pack_index, ptr %41, i32 0, i32 10
  %43 = load i32, ptr %42, align 8, !tbaa !40
  %44 = load ptr, ptr %5, align 8, !tbaa !4
  %45 = getelementptr inbounds nuw %struct.multi_pack_index, ptr %44, i32 0, i32 28
  %46 = load i32, ptr %45, align 4, !tbaa !40
  %47 = add i32 %43, %46
  call void (ptr, ...) @die(ptr noundef %39, i32 noundef %40, i32 noundef %47) #14
  unreachable

48:                                               ; preds = %28
  %49 = load ptr, ptr %5, align 8, !tbaa !4
  %50 = load ptr, ptr %3, align 8, !tbaa !61
  store ptr %49, ptr %50, align 8, !tbaa !4
  %51 = load i32, ptr %4, align 4, !tbaa !40
  %52 = load ptr, ptr %5, align 8, !tbaa !4
  %53 = getelementptr inbounds nuw %struct.multi_pack_index, ptr %52, i32 0, i32 28
  %54 = load i32, ptr %53, align 4, !tbaa !40
  %55 = sub i32 %51, %54
  call void @llvm.lifetime.end.p0(i64 8, ptr %5) #13
  ret i32 %55
}

; Function Attrs: nounwind uwtable
define dso_local i32 @nth_bitmapped_pack(ptr noundef %0, ptr noundef %1, ptr noundef %2, i32 noundef %3) #0 {
  %5 = alloca i32, align 4
  %6 = alloca ptr, align 8
  %7 = alloca ptr, align 8
  %8 = alloca ptr, align 8
  %9 = alloca i32, align 4
  %10 = alloca i32, align 4
  %11 = alloca i32, align 4
  store ptr %0, ptr %6, align 8, !tbaa !13
  store ptr %1, ptr %7, align 8, !tbaa !4
  store ptr %2, ptr %8, align 8, !tbaa !71
  store i32 %3, ptr %9, align 4, !tbaa !40
  call void @llvm.lifetime.start.p0(i64 4, ptr %10) #13
  %12 = load i32, ptr %9, align 4, !tbaa !40
  %13 = call i32 @midx_for_pack(ptr noundef %7, i32 noundef %12)
  store i32 %13, ptr %10, align 4, !tbaa !40
  %14 = load ptr, ptr %7, align 8, !tbaa !4
  %15 = getelementptr inbounds nuw %struct.multi_pack_index, ptr %14, i32 0, i32 17
  %16 = load ptr, ptr %15, align 8, !tbaa !73
  %17 = icmp ne ptr %16, null
  br i1 %17, label %22, label %18

18:                                               ; preds = %4
  %19 = call ptr @_(ptr noundef @.str.8)
  %20 = call i32 (ptr, ...) @error(ptr noundef %19)
  %21 = call i32 @const_error()
  store i32 %21, ptr %5, align 4
  store i32 1, ptr %11, align 4
  br label %70

22:                                               ; preds = %4
  %23 = load ptr, ptr %6, align 8, !tbaa !13
  %24 = load ptr, ptr %7, align 8, !tbaa !4
  %25 = load i32, ptr %9, align 4, !tbaa !40
  %26 = call i32 @prepare_midx_pack(ptr noundef %23, ptr noundef %24, i32 noundef %25)
  %27 = icmp ne i32 %26, 0
  br i1 %27, label %28, label %33

28:                                               ; preds = %22
  %29 = call ptr @_(ptr noundef @.str.9)
  %30 = load i32, ptr %9, align 4, !tbaa !40
  %31 = call i32 (ptr, ...) @error(ptr noundef %29, i32 noundef %30)
  %32 = call i32 @const_error()
  store i32 %32, ptr %5, align 4
  store i32 1, ptr %11, align 4
  br label %70

33:                                               ; preds = %22
  %34 = load ptr, ptr %7, align 8, !tbaa !4
  %35 = getelementptr inbounds nuw %struct.multi_pack_index, ptr %34, i32 0, i32 30
  %36 = load ptr, ptr %35, align 8, !tbaa !52
  %37 = load i32, ptr %10, align 4, !tbaa !40
  %38 = zext i32 %37 to i64
  %39 = getelementptr inbounds nuw ptr, ptr %36, i64 %38
  %40 = load ptr, ptr %39, align 8, !tbaa !56
  %41 = load ptr, ptr %8, align 8, !tbaa !71
  %42 = getelementptr inbounds nuw %struct.bitmapped_pack, ptr %41, i32 0, i32 0
  store ptr %40, ptr %42, align 8, !tbaa !75
  %43 = load ptr, ptr %7, align 8, !tbaa !4
  %44 = getelementptr inbounds nuw %struct.multi_pack_index, ptr %43, i32 0, i32 17
  %45 = load ptr, ptr %44, align 8, !tbaa !73
  %46 = load i32, ptr %10, align 4, !tbaa !40
  %47 = zext i32 %46 to i64
  %48 = mul i64 8, %47
  %49 = getelementptr inbounds nuw i8, ptr %45, i64 %48
  %50 = call i32 @get_be32(ptr noundef %49)
  %51 = load ptr, ptr %8, align 8, !tbaa !71
  %52 = getelementptr inbounds nuw %struct.bitmapped_pack, ptr %51, i32 0, i32 1
  store i32 %50, ptr %52, align 8, !tbaa !77
  %53 = load ptr, ptr %7, align 8, !tbaa !4
  %54 = getelementptr inbounds nuw %struct.multi_pack_index, ptr %53, i32 0, i32 17
  %55 = load ptr, ptr %54, align 8, !tbaa !73
  %56 = load i32, ptr %10, align 4, !tbaa !40
  %57 = zext i32 %56 to i64
  %58 = mul i64 8, %57
  %59 = getelementptr inbounds nuw i8, ptr %55, i64 %58
  %60 = getelementptr inbounds nuw i8, ptr %59, i64 4
  %61 = call i32 @get_be32(ptr noundef %60)
  %62 = load ptr, ptr %8, align 8, !tbaa !71
  %63 = getelementptr inbounds nuw %struct.bitmapped_pack, ptr %62, i32 0, i32 2
  store i32 %61, ptr %63, align 4, !tbaa !78
  %64 = load i32, ptr %9, align 4, !tbaa !40
  %65 = load ptr, ptr %8, align 8, !tbaa !71
  %66 = getelementptr inbounds nuw %struct.bitmapped_pack, ptr %65, i32 0, i32 4
  store i32 %64, ptr %66, align 8, !tbaa !79
  %67 = load ptr, ptr %7, align 8, !tbaa !4
  %68 = load ptr, ptr %8, align 8, !tbaa !71
  %69 = getelementptr inbounds nuw %struct.bitmapped_pack, ptr %68, i32 0, i32 3
  store ptr %67, ptr %69, align 8, !tbaa !80
  store i32 0, ptr %5, align 4
  store i32 1, ptr %11, align 4
  br label %70

70:                                               ; preds = %33, %28, %18
  call void @llvm.lifetime.end.p0(i64 4, ptr %10) #13
  %71 = load i32, ptr %5, align 4
  ret i32 %71
}