; Function Attrs: nounwind uwtable
define dso_local range(i32 -1, 1) i32 @nth_bitmapped_pack(ptr noundef %0, ptr noundef %1, ptr noundef writeonly captures(none) %2, i32 noundef %3) local_unnamed_addr #1 {
  %.not22.i = icmp eq ptr %1, null
  br i1 %.not22.i, label %.critedge18.i, label %.lr.ph.i

.lr.ph.i:                                         ; preds = %4, %8
  %.023.i = phi ptr [ %.0.i, %8 ], [ %1, %4 ]
  %5 = getelementptr inbounds nuw i8, ptr %.023.i, i64 180
  %6 = load i32, ptr %5, align 4, !tbaa !41
  %7 = icmp ult i32 %3, %6
  br i1 %7, label %8, label %.critedge.i

8:                                                ; preds = %.lr.ph.i
  %9 = getelementptr inbounds nuw i8, ptr %.023.i, i64 168
  %.0.i = load ptr, ptr %9, align 8, !tbaa !44
  %.not.i = icmp eq ptr %.0.i, null
  br i1 %.not.i, label %.critedge18.i, label %.lr.ph.i, !llvm.loop !56

.critedge18.i:                                    ; preds = %8, %4
  tail call void (ptr, i32, ptr, ...) @BUG_fl(ptr noundef nonnull @.str.43, i32 noundef 442, ptr noundef nonnull @.str.61, i32 noundef %3) #24
  unreachable

.critedge.i:                                      ; preds = %.lr.ph.i
  %10 = getelementptr inbounds nuw i8, ptr %.023.i, i64 56
  %11 = load i32, ptr %10, align 8, !tbaa !41
  %12 = add i32 %11, %6
  %.not17.i = icmp ult i32 %3, %12
  br i1 %.not17.i, label %midx_for_pack.exit, label %13

13:                                               ; preds = %.critedge.i
  %14 = getelementptr inbounds nuw i8, ptr %.023.i, i64 180
  %15 = tail call fastcc ptr @_(ptr noundef nonnull @.str.62)
  %16 = load i32, ptr %10, align 8, !tbaa !41
  %17 = load i32, ptr %14, align 4, !tbaa !41
  %18 = add i32 %17, %16
  tail call void (ptr, ...) @die(ptr noundef %15, i32 noundef %3, i32 noundef %18) #24
  unreachable

midx_for_pack.exit:                               ; preds = %.critedge.i
  %19 = sub i32 %3, %6
  %20 = getelementptr inbounds nuw i8, ptr %.023.i, i64 96
  %21 = load ptr, ptr %20, align 8, !tbaa !67
  %.not = icmp eq ptr %21, null
  br i1 %.not, label %22, label %27

22:                                               ; preds = %midx_for_pack.exit
  %23 = load i32, ptr @git_gettext_enabled, align 4, !tbaa !41
  %.not4.i = icmp eq i32 %23, 0
  br i1 %.not4.i, label %_.exit, label %24

24:                                               ; preds = %22
  %25 = tail call ptr @dcgettext(ptr noundef null, ptr noundef nonnull @.str.8, i32 noundef 5) #22
  br label %_.exit

_.exit:                                           ; preds = %22, %24
  %.0.i14 = phi ptr [ %25, %24 ], [ @.str.8, %22 ]
  %26 = tail call i32 (ptr, ...) @error(ptr noundef %.0.i14) #22
  br label %82

27:                                               ; preds = %midx_for_pack.exit
  %28 = tail call i32 @prepare_midx_pack(ptr noundef %0, ptr noundef nonnull %.023.i, i32 noundef %3)
  %.not13 = icmp eq i32 %28, 0
  br i1 %.not13, label %34, label %29

29:                                               ; preds = %27
  %30 = load i32, ptr @git_gettext_enabled, align 4, !tbaa !41
  %.not4.i15 = icmp eq i32 %30, 0
  br i1 %.not4.i15, label %_.exit17, label %31

31:                                               ; preds = %29
  %32 = tail call ptr @dcgettext(ptr noundef null, ptr noundef nonnull @.str.9, i32 noundef 5) #22
  br label %_.exit17

_.exit17:                                         ; preds = %29, %31
  %.0.i16 = phi ptr [ %32, %31 ], [ @.str.9, %29 ]
  %33 = tail call i32 (ptr, ...) @error(ptr noundef %.0.i16, i32 noundef %3) #22
  br label %82

34:                                               ; preds = %27
  %35 = getelementptr inbounds nuw i8, ptr %.023.i, i64 192
  %36 = load ptr, ptr %35, align 8, !tbaa !50
  %37 = zext i32 %19 to i64
  %38 = getelementptr inbounds nuw ptr, ptr %36, i64 %37
  %39 = load ptr, ptr %38, align 8, !tbaa !53
  store ptr %39, ptr %2, align 8, !tbaa !69
  %40 = load ptr, ptr %20, align 8, !tbaa !67
  %41 = shl nuw nsw i64 %37, 3
  %42 = getelementptr inbounds nuw i8, ptr %40, i64 %41
  %43 = load i8, ptr %42, align 1, !tbaa !43
  %44 = zext i8 %43 to i32
  %45 = shl nuw i32 %44, 24
  %46 = getelementptr inbounds nuw i8, ptr %42, i64 1
  %47 = load i8, ptr %46, align 1, !tbaa !43
  %48 = zext i8 %47 to i32
  %49 = shl nuw nsw i32 %48, 16
  %50 = or disjoint i32 %49, %45
  %51 = getelementptr inbounds nuw i8, ptr %42, i64 2
  %52 = load i8, ptr %51, align 1, !tbaa !43
  %53 = zext i8 %52 to i32
  %54 = shl nuw nsw i32 %53, 8
  %55 = or disjoint i32 %50, %54
  %56 = getelementptr inbounds nuw i8, ptr %42, i64 3
  %57 = load i8, ptr %56, align 1, !tbaa !43
  %58 = zext i8 %57 to i32
  %59 = or disjoint i32 %55, %58
  %60 = getelementptr inbounds nuw i8, ptr %2, i64 8
  store i32 %59, ptr %60, align 8, !tbaa !71
  %61 = getelementptr inbounds nuw i8, ptr %42, i64 4
  %62 = load i8, ptr %61, align 1, !tbaa !43
  %63 = zext i8 %62 to i32
  %64 = shl nuw i32 %63, 24
  %65 = getelementptr inbounds nuw i8, ptr %42, i64 5
  %66 = load i8, ptr %65, align 1, !tbaa !43
  %67 = zext i8 %66 to i32
  %68 = shl nuw nsw i32 %67, 16
  %69 = or disjoint i32 %68, %64
  %70 = getelementptr inbounds nuw i8, ptr %42, i64 6
  %71 = load i8, ptr %70, align 1, !tbaa !43
  %72 = zext i8 %71 to i32
  %73 = shl nuw nsw i32 %72, 8
  %74 = or disjoint i32 %69, %73
  %75 = getelementptr inbounds nuw i8, ptr %42, i64 7
  %76 = load i8, ptr %75, align 1, !tbaa !43
  %77 = zext i8 %76 to i32
  %78 = or disjoint i32 %74, %77
  %79 = getelementptr inbounds nuw i8, ptr %2, i64 12
  store i32 %78, ptr %79, align 4, !tbaa !72
  %80 = getelementptr inbounds nuw i8, ptr %2, i64 24
  store i32 %3, ptr %80, align 8, !tbaa !73
  %81 = getelementptr inbounds nuw i8, ptr %2, i64 16
  store ptr %.023.i, ptr %81, align 8, !tbaa !74
  br label %82

82:                                               ; preds = %34, %_.exit17, %_.exit
  %.0 = phi i32 [ -1, %_.exit17 ], [ 0, %34 ], [ -1, %_.exit ]
  ret i32 %.0
}